target datalayout = "e-m:e-p270:32:32-p271:32:32-p272:64:64-i64:64-i128:128-f80:128-n8:16:32:64-S128"
target triple = "x86_64-pc-linux-gnu"

%struct.mbedtls_psa_hash_operation_t = type { i32, %union.anon }
%union.anon = type { %struct.mbedtls_sha512_context }
%struct.mbedtls_sha512_context = type { [2 x i64], [8 x i64], [128 x i8], i32 }

; Function Attrs: nounwind uwtable
define hidden i32 @mbedtls_psa_hash_abort(ptr noundef %0) #0 {
  %2 = alloca i32, align 4
  %3 = alloca ptr, align 8
  store ptr %0, ptr %3, align 8, !tbaa !3
  %4 = load ptr, ptr %3, align 8, !tbaa !3
  %5 = getelementptr inbounds nuw %struct.mbedtls_psa_hash_operation_t, ptr %4, i32 0, i32 0
  %6 = load i32, ptr %5, align 8, !tbaa !7
  switch i32 %6, label %31 [
    i32 0, label %32
    i32 33554435, label %7
    i32 33554436, label %10
    i32 33554437, label %13
    i32 33554440, label %16
    i32 33554441, label %19
    i32 33554442, label %22
    i32 33554443, label %25
    i32 33554448, label %28
    i32 33554449, label %28
    i32 33554450, label %28
    i32 33554451, label %28
  ]

7:                                                ; preds = %1
  %8 = load ptr, ptr %3, align 8, !tbaa !3
  %9 = getelementptr inbounds nuw %struct.mbedtls_psa_hash_operation_t, ptr %8, i32 0, i32 1
  call void @mbedtls_md5_free(ptr noundef %9)
  br label %32

10:                                               ; preds = %1
  %11 = load ptr, ptr %3, align 8, !tbaa !3
  %12 = getelementptr inbounds nuw %struct.mbedtls_psa_hash_operation_t, ptr %11, i32 0, i32 1
  call void @mbedtls_ripemd160_free(ptr noundef %12)
  br label %32

13:                                               ; preds = %1
  %14 = load ptr, ptr %3, align 8, !tbaa !3
  %15 = getelementptr inbounds nuw %struct.mbedtls_psa_hash_operation_t, ptr %14, i32 0, i32 1
  call void @mbedtls_sha1_free(ptr noundef %15)
  br label %32

16:                                               ; preds = %1
  %17 = load ptr, ptr %3, align 8, !tbaa !3
  %18 = getelementptr inbounds nuw %struct.mbedtls_psa_hash_operation_t, ptr %17, i32 0, i32 1
  call void @mbedtls_sha256_free(ptr noundef %18)
  br label %32

19:                                               ; preds = %1
  %20 = load ptr, ptr %3, align 8, !tbaa !3
  %21 = getelementptr inbounds nuw %struct.mbedtls_psa_hash_operation_t, ptr %20, i32 0, i32 1
  call void @mbedtls_sha256_free(ptr noundef %21)
  br label %32

22:                                               ; preds = %1
  %23 = load ptr, ptr %3, align 8, !tbaa !3
  %24 = getelementptr inbounds nuw %struct.mbedtls_psa_hash_operation_t, ptr %23, i32 0, i32 1
  call void @mbedtls_sha512_free(ptr noundef %24)
  br label %32

25:                                               ; preds = %1
  %26 = load ptr, ptr %3, align 8, !tbaa !3
  %27 = getelementptr inbounds nuw %struct.mbedtls_psa_hash_operation_t, ptr %26, i32 0, i32 1
  call void @mbedtls_sha512_free(ptr noundef %27)
  br label %32

28:                                               ; preds = %1, %1, %1, %1
  %29 = load ptr, ptr %3, align 8, !tbaa !3
  %30 = getelementptr inbounds nuw %struct.mbedtls_psa_hash_operation_t, ptr %29, i32 0, i32 1
  call void @mbedtls_sha3_free(ptr noundef %30)
  br label %32

31:                                               ; preds = %1
  store i32 -137, ptr %2, align 4
  br label %35

32:                                               ; preds = %28, %1, %25, %22, %19, %16, %13, %10, %7
  %33 = load ptr, ptr %3, align 8, !tbaa !3
  %34 = getelementptr inbounds nuw %struct.mbedtls_psa_hash_operation_t, ptr %33, i32 0, i32 0
  store i32 0, ptr %34, align 8, !tbaa !7
  store i32 0, ptr %2, align 4
  br label %35

35:                                               ; preds = %32, %31
  %36 = load i32, ptr %2, align 4
  ret i32 %36
}