; Function Attrs: nounwind uwtable
define hidden range(i32 -137, 1) i32 @mbedtls_psa_hash_abort(ptr noundef %0) local_unnamed_addr #0 {
  %2 = load i32, ptr %0, align 8, !tbaa !3
  switch i32 %2, label %20 [
    i32 0, label %19
    i32 33554435, label %3
    i32 33554436, label %5
    i32 33554437, label %7
    i32 33554440, label %9
    i32 33554441, label %11
    i32 33554442, label %13
    i32 33554443, label %15
    i32 33554448, label %17
    i32 33554449, label %17
    i32 33554450, label %17
    i32 33554451, label %17
  ]

3:                                                ; preds = %1
  %4 = getelementptr inbounds nuw i8, ptr %0, i64 8
  tail call void @mbedtls_md5_free(ptr noundef nonnull %4) #4
  br label %19

5:                                                ; preds = %1
  %6 = getelementptr inbounds nuw i8, ptr %0, i64 8
  tail call void @mbedtls_ripemd160_free(ptr noundef nonnull %6) #4
  br label %19

7:                                                ; preds = %1
  %8 = getelementptr inbounds nuw i8, ptr %0, i64 8
  tail call void @mbedtls_sha1_free(ptr noundef nonnull %8) #4
  br label %19

9:                                                ; preds = %1
  %10 = getelementptr inbounds nuw i8, ptr %0, i64 8
  tail call void @mbedtls_sha256_free(ptr noundef nonnull %10) #4
  br label %19

11:                                               ; preds = %1
  %12 = getelementptr inbounds nuw i8, ptr %0, i64 8
  tail call void @mbedtls_sha256_free(ptr noundef nonnull %12) #4
  br label %19

13:                                               ; preds = %1
  %14 = getelementptr inbounds nuw i8, ptr %0, i64 8
  tail call void @mbedtls_sha512_free(ptr noundef nonnull %14) #4
  br label %19

15:                                               ; preds = %1
  %16 = getelementptr inbounds nuw i8, ptr %0, i64 8
  tail call void @mbedtls_sha512_free(ptr noundef nonnull %16) #4
  br label %19

17:                                               ; preds = %1, %1, %1, %1
  %18 = getelementptr inbounds nuw i8, ptr %0, i64 8
  tail call void @mbedtls_sha3_free(ptr noundef nonnull %18) #4
  br label %19

19:                                               ; preds = %17, %15, %13, %11, %9, %7, %5, %3, %1
  store i32 0, ptr %0, align 8, !tbaa !3
  br label %20

20:                                               ; preds = %1, %19
  %.0 = phi i32 [ 0, %19 ], [ -137, %1 ]
  ret i32 %.0
}